target datalayout = "e-m:e-p270:32:32-p271:32:32-p272:64:64-i64:64-i128:128-f80:128-n8:16:32:64-S128"
target triple = "x86_64-pc-linux-gnu"

@_ZTIN19OpenColorIO_v2_5dev23MixingColorSpaceManagerE = linkonce_odr constant { ptr, ptr } { ptr getelementptr inbounds (ptr, ptr @_ZTVN10__cxxabiv117__class_type_infoE, i64 2), ptr @_ZTSN19OpenColorIO_v2_5dev23MixingColorSpaceManagerE }, comdat, align 8

; Function Attrs: mustprogress uwtable
define noundef nonnull align 8 dereferenceable(8) ptr @_ZN19OpenColorIO_v2_5devlsERSoRKNS_23MixingColorSpaceManagerE(ptr noundef nonnull align 8 dereferenceable(8) %0, ptr noundef nonnull align 8 dereferenceable(8) %1) #2 {
  %3 = alloca ptr, align 8
  %4 = alloca ptr, align 8
  %5 = alloca ptr, align 8
  store ptr %0, ptr %3, align 8, !tbaa !23
  store ptr %1, ptr %4, align 8, !tbaa !8
  call void @llvm.lifetime.start.p0(i64 8, ptr %5) #20
  %6 = load ptr, ptr %4, align 8, !tbaa !8
  %7 = call ptr @__dynamic_cast(ptr %6, ptr @_ZTIN19OpenColorIO_v2_5dev23MixingColorSpaceManagerE, ptr @_ZTIN19OpenColorIO_v2_5dev27MixingColorSpaceManagerImplE, i64 0) #20
  %8 = icmp eq ptr %7, null
  br i1 %8, label %9, label %10

9:                                                ; preds = %2
  call void @__cxa_bad_cast() #24
  unreachable

10:                                               ; preds = %2
  store ptr %7, ptr %5, align 8, !tbaa !31
  %11 = load ptr, ptr %5, align 8, !tbaa !31
  %12 = load ptr, ptr %3, align 8, !tbaa !23
  %13 = call noundef nonnull align 8 dereferenceable(8) ptr @_ZNK19OpenColorIO_v2_5dev27MixingColorSpaceManagerImpl9serializeERSo(ptr noundef nonnull align 8 dereferenceable(128) %11, ptr noundef nonnull align 8 dereferenceable(8) %12)
  %14 = load ptr, ptr %3, align 8, !tbaa !23
  call void @llvm.lifetime.end.p0(i64 8, ptr %5) #20
  ret ptr %14
}